; Function Attrs: mustprogress uwtable
define dso_local void @_ZN15cmCustomCommand14AppendCommandsERK20cmCustomCommandLines(ptr noundef nonnull align 8 dereferenceable(348) %0, ptr noundef nonnull readonly align 8 captures(none) dereferenceable(24) %1) local_unnamed_addr #6 align 2 {
  %3 = getelementptr inbounds nuw i8, ptr %0, i64 72
  %4 = getelementptr inbounds nuw i8, ptr %0, i64 80
  %5 = load ptr, ptr %4, align 8, !tbaa !57
  %6 = load ptr, ptr %1, align 8, !tbaa !57
  %7 = getelementptr inbounds nuw i8, ptr %1, i64 8
  %8 = load ptr, ptr %7, align 8, !tbaa !57
  %9 = load ptr, ptr %3, align 8, !tbaa !57
  %10 = ptrtoint ptr %5 to i64
  %11 = ptrtoint ptr %9 to i64
  %12 = sub i64 %10, %11
  %13 = getelementptr inbounds i8, ptr %9, i64 %12
  tail call void @_ZNSt6vectorI19cmCustomCommandLineSaIS0_EE15_M_range_insertIN9__gnu_cxx17__normal_iteratorIPKS0_S2_EEEEvNS5_IPS0_S2_EET_SB_St20forward_iterator_tag(ptr noundef nonnull align 8 dereferenceable(24) %3, ptr %13, ptr %6, ptr %8)
  ret void
}